target datalayout = "e-m:e-p270:32:32-p271:32:32-p272:64:64-i64:64-i128:128-f80:128-n8:16:32:64-S128"
target triple = "x86_64-pc-linux-gnu"

%"class.cv::Mat" = type { i32, i32, i32, i32, ptr, ptr, ptr, ptr, ptr, ptr, %"struct.cv::MatSize", %"struct.cv::MatStep" }
%"struct.cv::MatSize" = type { ptr }
%"struct.cv::MatStep" = type { ptr, [2 x i64] }
%"class.cv::ccm::Operations" = type { ptr, %"class.std::vector" }
%"class.std::vector" = type { %"struct.std::_Vector_base" }
%"struct.std::_Vector_base" = type { %"struct.std::_Vector_base<cv::ccm::Operation, std::allocator<cv::ccm::Operation>>::_Vector_impl" }
%"struct.std::_Vector_base<cv::ccm::Operation, std::allocator<cv::ccm::Operation>>::_Vector_impl" = type { %"struct.std::_Vector_base<cv::ccm::Operation, std::allocator<cv::ccm::Operation>>::_Vector_impl_data" }
%"struct.std::_Vector_base<cv::ccm::Operation, std::allocator<cv::ccm::Operation>>::_Vector_impl_data" = type { ptr, ptr, ptr }
%"class.cv::ccm::ColorSpace" = type { ptr, %"class.cv::ccm::IO", %"class.std::__cxx11::basic_string", i8, %"class.cv::ccm::Operations", %"class.cv::ccm::Operations", ptr, ptr }
%"class.cv::ccm::IO" = type { ptr, %"class.std::__cxx11::basic_string", %"class.std::__cxx11::basic_string" }
%"class.std::__cxx11::basic_string" = type { %"struct.std::__cxx11::basic_string<char>::_Alloc_hider", i64, %union.anon }
%"struct.std::__cxx11::basic_string<char>::_Alloc_hider" = type { ptr }
%union.anon = type { i64, [8 x i8] }
%"class.cv::ccm::RGBBase_" = type { %"class.cv::ccm::ColorSpace", double, double, double, double, double, double, %"class.cv::Mat", %"class.cv::Mat" }
%"class.cv::ccm::sRGBBase_" = type { %"class.cv::ccm::RGBBase_", double, double, double, double, double, double }

; Function Attrs: mustprogress nounwind uwtable
define hidden noundef double @_ZNK2cv3ccm9sRGBBase_9toLFuncEWERd(ptr noundef nonnull align 8 dereferenceable(488) %0, ptr noundef nonnull align 8 dereferenceable(8) %1) #8 align 2 {
  %3 = alloca double, align 8
  %4 = alloca ptr, align 8
  %5 = alloca ptr, align 8
  store ptr %0, ptr %4, align 8, !tbaa !141
  store ptr %1, ptr %5, align 8, !tbaa !150
  %6 = load ptr, ptr %4, align 8
  %7 = load ptr, ptr %5, align 8, !tbaa !150
  %8 = load double, ptr %7, align 8, !tbaa !65
  %9 = getelementptr inbounds nuw %"class.cv::ccm::sRGBBase_", ptr %6, i32 0, i32 6
  %10 = load double, ptr %9, align 8, !tbaa !147
  %11 = fcmp ogt double %8, %10
  br i1 %11, label %12, label %25

12:                                               ; preds = %2
  %13 = load ptr, ptr %5, align 8, !tbaa !150
  %14 = load double, ptr %13, align 8, !tbaa !65
  %15 = getelementptr inbounds nuw %"class.cv::ccm::sRGBBase_", ptr %6, i32 0, i32 3
  %16 = load double, ptr %15, align 8, !tbaa !145
  %17 = fadd double %14, %16
  %18 = fsub double %17, 1.000000e+00
  %19 = getelementptr inbounds nuw %"class.cv::ccm::sRGBBase_", ptr %6, i32 0, i32 3
  %20 = load double, ptr %19, align 8, !tbaa !145
  %21 = fdiv double %18, %20
  %22 = getelementptr inbounds nuw %"class.cv::ccm::sRGBBase_", ptr %6, i32 0, i32 2
  %23 = load double, ptr %22, align 8, !tbaa !146
  %24 = call double @pow(double noundef %21, double noundef %23) #3, !tbaa !122
  store double %24, ptr %3, align 8
  br label %53

25:                                               ; preds = %2
  %26 = load ptr, ptr %5, align 8, !tbaa !150
  %27 = load double, ptr %26, align 8, !tbaa !65
  %28 = getelementptr inbounds nuw %"class.cv::ccm::sRGBBase_", ptr %6, i32 0, i32 6
  %29 = load double, ptr %28, align 8, !tbaa !147
  %30 = fneg double %29
  %31 = fcmp oge double %27, %30
  br i1 %31, label %32, label %38

32:                                               ; preds = %25
  %33 = load ptr, ptr %5, align 8, !tbaa !150
  %34 = load double, ptr %33, align 8, !tbaa !65
  %35 = getelementptr inbounds nuw %"class.cv::ccm::sRGBBase_", ptr %6, i32 0, i32 5
  %36 = load double, ptr %35, align 8, !tbaa !148
  %37 = fdiv double %34, %36
  store double %37, ptr %3, align 8
  br label %53

38:                                               ; preds = %25
  %39 = load ptr, ptr %5, align 8, !tbaa !150
  %40 = load double, ptr %39, align 8, !tbaa !65
  %41 = fneg double %40
  %42 = getelementptr inbounds nuw %"class.cv::ccm::sRGBBase_", ptr %6, i32 0, i32 3
  %43 = load double, ptr %42, align 8, !tbaa !145
  %44 = fadd double %41, %43
  %45 = fsub double %44, 1.000000e+00
  %46 = getelementptr inbounds nuw %"class.cv::ccm::sRGBBase_", ptr %6, i32 0, i32 3
  %47 = load double, ptr %46, align 8, !tbaa !145
  %48 = fdiv double %45, %47
  %49 = getelementptr inbounds nuw %"class.cv::ccm::sRGBBase_", ptr %6, i32 0, i32 2
  %50 = load double, ptr %49, align 8, !tbaa !146
  %51 = call double @pow(double noundef %48, double noundef %50) #3, !tbaa !122
  %52 = fneg double %51
  store double %52, ptr %3, align 8
  br label %53

53:                                               ; preds = %38, %32, %12
  %54 = load double, ptr %3, align 8
  ret double %54
}