; Function Attrs: mustprogress nofree nounwind willreturn memory(write, argmem: readwrite) uwtable
define hidden noundef double @_ZNK2cv3ccm9sRGBBase_9toLFuncEWERd(ptr noundef nonnull readonly align 8 captures(none) dereferenceable(488) %0, ptr noundef nonnull readonly align 8 captures(none) dereferenceable(8) %1) local_unnamed_addr #8 align 2 {
  %3 = load double, ptr %1, align 8, !tbaa !84
  %4 = getelementptr inbounds nuw i8, ptr %0, i64 480
  %5 = load double, ptr %4, align 8, !tbaa !131
  %6 = fcmp ogt double %3, %5
  br i1 %6, label %7, label %16

7:                                                ; preds = %2
  %8 = getelementptr inbounds nuw i8, ptr %0, i64 456
  %9 = load double, ptr %8, align 8, !tbaa !129
  %10 = fadd double %3, %9
  %11 = fadd double %10, -1.000000e+00
  %12 = fdiv double %11, %9
  %13 = getelementptr inbounds nuw i8, ptr %0, i64 448
  %14 = load double, ptr %13, align 8, !tbaa !130
  %15 = tail call double @pow(double noundef %12, double noundef %14) #35, !tbaa !95
  br label %33

16:                                               ; preds = %2
  %17 = fneg double %5
  %18 = fcmp ult double %3, %17
  br i1 %18, label %23, label %19

19:                                               ; preds = %16
  %20 = getelementptr inbounds nuw i8, ptr %0, i64 472
  %21 = load double, ptr %20, align 8, !tbaa !132
  %22 = fdiv double %3, %21
  br label %33

23:                                               ; preds = %16
  %24 = getelementptr inbounds nuw i8, ptr %0, i64 456
  %25 = load double, ptr %24, align 8, !tbaa !129
  %26 = fsub double %25, %3
  %27 = fadd double %26, -1.000000e+00
  %28 = fdiv double %27, %25
  %29 = getelementptr inbounds nuw i8, ptr %0, i64 448
  %30 = load double, ptr %29, align 8, !tbaa !130
  %31 = tail call double @pow(double noundef %28, double noundef %30) #35, !tbaa !95
  %32 = fneg double %31
  br label %33

33:                                               ; preds = %23, %19, %7
  %.0 = phi double [ %15, %7 ], [ %22, %19 ], [ %32, %23 ]
  ret double %.0
}